target datalayout = "e-m:e-p270:32:32-p271:32:32-p272:64:64-i64:64-i128:128-f80:128-n8:16:32:64-S128"
target triple = "x86_64-pc-linux-gnu"

%struct.Context = type { i32, i32, i32, i32, i32, i32, i32, i32, i32, i32, i32, i32, ptr, ptr, ptr, [80 x i8], i64, i64, i32, [24 x i32], i64, i64, i32, ptr, ptr, i64, ptr, ptr, ptr, i32, i32, i32, ptr, ptr, ptr, ptr, ptr, i64, ptr, ptr, i64, ptr, i64, ptr, i64, i64, i64, i64 }

@stderr = external global ptr, align 8
@.str.51 = private unnamed_addr constant [3 x i8] c"rb\00", align 1
@.str.58 = private unnamed_addr constant [4 x i8] c"con\00", align 1
@.str.64 = private unnamed_addr constant [36 x i8] c"failed to open input file [%s]: %s\0A\00", align 1
@.str.65 = private unnamed_addr constant [3 x i8] c"wb\00", align 1
@.str.66 = private unnamed_addr constant [37 x i8] c"failed to open output file [%s]: %s\0A\00", align 1

; Function Attrs: nounwind uwtable
define internal ptr @PrintablePath(ptr noundef %0) #0 {
  %2 = alloca ptr, align 8
  store ptr %0, ptr %2, align 8, !tbaa !56
  %3 = load ptr, ptr %2, align 8, !tbaa !56
  %4 = icmp ne ptr %3, null
  br i1 %4, label %5, label %7

5:                                                ; preds = %1
  %6 = load ptr, ptr %2, align 8, !tbaa !56
  br label %8

7:                                                ; preds = %1
  br label %8

8:                                                ; preds = %7, %5
  %9 = phi ptr [ %6, %5 ], [ @.str.58, %7 ]
  ret ptr %9
}

; Function Attrs: nounwind uwtable
define internal i32 @OpenOutputFile(ptr noundef %0, ptr noundef %1, i32 noundef %2) #0 {
  %4 = alloca i32, align 4
  %5 = alloca ptr, align 8
  %6 = alloca ptr, align 8
  %7 = alloca i32, align 4
  %8 = alloca i32, align 4
  %9 = alloca i32, align 4
  store ptr %0, ptr %5, align 8, !tbaa !56
  store ptr %1, ptr %6, align 8, !tbaa !79
  store i32 %2, ptr %7, align 4, !tbaa !4
  call void @llvm.lifetime.start.p0(i64 4, ptr %8) #8
  %10 = load ptr, ptr %6, align 8, !tbaa !79
  store ptr null, ptr %10, align 8, !tbaa !53
  %11 = load ptr, ptr %5, align 8, !tbaa !56
  %12 = icmp ne ptr %11, null
  br i1 %12, label %16, label %13

13:                                               ; preds = %3
  %14 = call noalias ptr @fdopen(i32 noundef 1, ptr noundef @.str.65) #8
  %15 = load ptr, ptr %6, align 8, !tbaa !79
  store ptr %14, ptr %15, align 8, !tbaa !53
  store i32 1, ptr %4, align 4
  store i32 1, ptr %9, align 4
  br label %51

16:                                               ; preds = %3
  %17 = load ptr, ptr %5, align 8, !tbaa !56
  %18 = load i32, ptr %7, align 4, !tbaa !4
  %19 = icmp ne i32 %18, 0
  %20 = select i1 %19, i32 0, i32 128
  %21 = or i32 64, %20
  %22 = or i32 %21, 1
  %23 = or i32 %22, 512
  %24 = call i32 (ptr, i32, ...) @open(ptr noundef %17, i32 noundef %23, i32 noundef 384)
  store i32 %24, ptr %8, align 4, !tbaa !4
  %25 = load i32, ptr %8, align 4, !tbaa !4
  %26 = icmp slt i32 %25, 0
  br i1 %26, label %27, label %35

27:                                               ; preds = %16
  %28 = load ptr, ptr @stderr, align 8, !tbaa !53
  %29 = load ptr, ptr %5, align 8, !tbaa !56
  %30 = call ptr @PrintablePath(ptr noundef %29)
  %31 = call ptr @__errno_location() #12
  %32 = load i32, ptr %31, align 4, !tbaa !4
  %33 = call ptr @strerror(i32 noundef %32) #8
  %34 = call i32 (ptr, ptr, ...) @fprintf(ptr noundef %28, ptr noundef @.str.66, ptr noundef %30, ptr noundef %33) #8
  store i32 0, ptr %4, align 4
  store i32 1, ptr %9, align 4
  br label %51

35:                                               ; preds = %16
  %36 = load i32, ptr %8, align 4, !tbaa !4
  %37 = call noalias ptr @fdopen(i32 noundef %36, ptr noundef @.str.65) #8
  %38 = load ptr, ptr %6, align 8, !tbaa !79
  store ptr %37, ptr %38, align 8, !tbaa !53
  %39 = load ptr, ptr %6, align 8, !tbaa !79
  %40 = load ptr, ptr %39, align 8, !tbaa !53
  %41 = icmp ne ptr %40, null
  br i1 %41, label %50, label %42

42:                                               ; preds = %35
  %43 = load ptr, ptr @stderr, align 8, !tbaa !53
  %44 = load ptr, ptr %5, align 8, !tbaa !56
  %45 = call ptr @PrintablePath(ptr noundef %44)
  %46 = call ptr @__errno_location() #12
  %47 = load i32, ptr %46, align 4, !tbaa !4
  %48 = call ptr @strerror(i32 noundef %47) #8
  %49 = call i32 (ptr, ptr, ...) @fprintf(ptr noundef %43, ptr noundef @.str.66, ptr noundef %45, ptr noundef %48) #8
  store i32 0, ptr %4, align 4
  store i32 1, ptr %9, align 4
  br label %51

50:                                               ; preds = %35
  store i32 1, ptr %4, align 4
  store i32 1, ptr %9, align 4
  br label %51

51:                                               ; preds = %50, %42, %27, %13
  call void @llvm.lifetime.end.p0(i64 4, ptr %8) #8
  %52 = load i32, ptr %4, align 4
  ret i32 %52
}

; Function Attrs: nounwind uwtable
define internal i32 @OpenInputFile(ptr noundef %0, ptr noundef %1) #0 {
  %3 = alloca i32, align 4
  %4 = alloca ptr, align 8
  %5 = alloca ptr, align 8
  store ptr %0, ptr %4, align 8, !tbaa !56
  store ptr %1, ptr %5, align 8, !tbaa !79
  %6 = load ptr, ptr %5, align 8, !tbaa !79
  store ptr null, ptr %6, align 8, !tbaa !53
  %7 = load ptr, ptr %4, align 8, !tbaa !56
  %8 = icmp ne ptr %7, null
  br i1 %8, label %12, label %9

9:                                                ; preds = %2
  %10 = call noalias ptr @fdopen(i32 noundef 0, ptr noundef @.str.51) #8
  %11 = load ptr, ptr %5, align 8, !tbaa !79
  store ptr %10, ptr %11, align 8, !tbaa !53
  store i32 1, ptr %3, align 4
  br label %28

12:                                               ; preds = %2
  %13 = load ptr, ptr %4, align 8, !tbaa !56
  %14 = call noalias ptr @fopen(ptr noundef %13, ptr noundef @.str.51)
  %15 = load ptr, ptr %5, align 8, !tbaa !79
  store ptr %14, ptr %15, align 8, !tbaa !53
  %16 = load ptr, ptr %5, align 8, !tbaa !79
  %17 = load ptr, ptr %16, align 8, !tbaa !53
  %18 = icmp ne ptr %17, null
  br i1 %18, label %27, label %19

19:                                               ; preds = %12
  %20 = load ptr, ptr @stderr, align 8, !tbaa !53
  %21 = load ptr, ptr %4, align 8, !tbaa !56
  %22 = call ptr @PrintablePath(ptr noundef %21)
  %23 = call ptr @__errno_location() #12
  %24 = load i32, ptr %23, align 4, !tbaa !4
  %25 = call ptr @strerror(i32 noundef %24) #8
  %26 = call i32 (ptr, ptr, ...) @fprintf(ptr noundef %20, ptr noundef @.str.64, ptr noundef %22, ptr noundef %25) #8
  store i32 0, ptr %3, align 4
  br label %28

27:                                               ; preds = %12
  store i32 1, ptr %3, align 4
  br label %28

28:                                               ; preds = %27, %19, %9
  %29 = load i32, ptr %3, align 4
  ret i32 %29
}

; Function Attrs: nounwind uwtable
define internal i32 @OpenFiles(ptr noundef %0) #0 {
  %2 = alloca ptr, align 8
  %3 = alloca i32, align 4
  store ptr %0, ptr %2, align 8, !tbaa !57
  call void @llvm.lifetime.start.p0(i64 4, ptr %3) #8
  %4 = load ptr, ptr %2, align 8, !tbaa !57
  %5 = getelementptr inbounds nuw %struct.Context, ptr %4, i32 0, i32 35
  %6 = load ptr, ptr %5, align 8, !tbaa !48
  %7 = load ptr, ptr %2, align 8, !tbaa !57
  %8 = getelementptr inbounds nuw %struct.Context, ptr %7, i32 0, i32 38
  %9 = call i32 @OpenInputFile(ptr noundef %6, ptr noundef %8)
  store i32 %9, ptr %3, align 4, !tbaa !4
  %10 = load ptr, ptr %2, align 8, !tbaa !57
  %11 = getelementptr inbounds nuw %struct.Context, ptr %10, i32 0, i32 8
  %12 = load i32, ptr %11, align 8, !tbaa !25
  %13 = icmp ne i32 %12, 0
  br i1 %13, label %27, label %14

14:                                               ; preds = %1
  %15 = load i32, ptr %3, align 4, !tbaa !4
  %16 = icmp ne i32 %15, 0
  br i1 %16, label %17, label %27

17:                                               ; preds = %14
  %18 = load ptr, ptr %2, align 8, !tbaa !57
  %19 = getelementptr inbounds nuw %struct.Context, ptr %18, i32 0, i32 36
  %20 = load ptr, ptr %19, align 8, !tbaa !49
  %21 = load ptr, ptr %2, align 8, !tbaa !57
  %22 = getelementptr inbounds nuw %struct.Context, ptr %21, i32 0, i32 39
  %23 = load ptr, ptr %2, align 8, !tbaa !57
  %24 = getelementptr inbounds nuw %struct.Context, ptr %23, i32 0, i32 3
  %25 = load i32, ptr %24, align 4, !tbaa !21
  %26 = call i32 @OpenOutputFile(ptr noundef %20, ptr noundef %22, i32 noundef %25)
  store i32 %26, ptr %3, align 4, !tbaa !4
  br label %27

27:                                               ; preds = %17, %14, %1
  %28 = load i32, ptr %3, align 4, !tbaa !4
  call void @llvm.lifetime.end.p0(i64 4, ptr %3) #8
  ret i32 %28
}