; Function Attrs: nounwind uwtable
define internal fastcc range(i32 0, 2) i32 @OpenFiles(ptr noundef nonnull captures(none) initializes((408, 416)) %0) unnamed_addr #0 {
  %2 = getelementptr inbounds nuw i8, ptr %0, i64 384
  %3 = load ptr, ptr %2, align 8, !tbaa !61
  %4 = getelementptr inbounds nuw i8, ptr %0, i64 408
  store ptr null, ptr %4, align 8, !tbaa !30
  %.not.i = icmp eq ptr %3, null
  br i1 %.not.i, label %5, label %7

5:                                                ; preds = %1
  %6 = tail call noalias ptr @fdopen(i32 noundef 0, ptr noundef nonnull @.str.51) #21
  store ptr %6, ptr %4, align 8, !tbaa !30
  br label %OpenInputFile.exit

7:                                                ; preds = %1
  %8 = tail call noalias ptr @fopen(ptr noundef nonnull %3, ptr noundef nonnull @.str.51)
  store ptr %8, ptr %4, align 8, !tbaa !30
  %.not8.i = icmp eq ptr %8, null
  br i1 %.not8.i, label %OpenInputFile.exit.thread, label %OpenInputFile.exit

OpenInputFile.exit.thread:                        ; preds = %7
  %9 = load ptr, ptr @stderr, align 8, !tbaa !30
  %10 = tail call ptr @__errno_location() #25
  %11 = load i32, ptr %10, align 4, !tbaa !20
  %12 = tail call ptr @strerror(i32 noundef %11) #21
  %13 = tail call i32 (ptr, ptr, ...) @fprintf(ptr noundef %9, ptr noundef nonnull @.str.64, ptr noundef nonnull %3, ptr noundef %12) #24
  br label %OpenOutputFile.exit

OpenInputFile.exit:                               ; preds = %5, %7
  %14 = getelementptr inbounds nuw i8, ptr %0, i64 32
  %15 = load i32, ptr %14, align 8, !tbaa !44
  %16 = icmp eq i32 %15, 0
  br i1 %16, label %17, label %OpenOutputFile.exit

17:                                               ; preds = %OpenInputFile.exit
  %18 = getelementptr inbounds nuw i8, ptr %0, i64 392
  %19 = load ptr, ptr %18, align 8, !tbaa !53
  %20 = getelementptr inbounds nuw i8, ptr %0, i64 416
  %21 = getelementptr inbounds nuw i8, ptr %0, i64 12
  %22 = load i32, ptr %21, align 4, !tbaa !31
  store ptr null, ptr %20, align 8, !tbaa !30
  %.not.i8 = icmp eq ptr %19, null
  br i1 %.not.i8, label %23, label %25

23:                                               ; preds = %17
  %24 = tail call noalias ptr @fdopen(i32 noundef 1, ptr noundef nonnull @.str.65) #21
  store ptr %24, ptr %20, align 8, !tbaa !30
  br label %OpenOutputFile.exit

25:                                               ; preds = %17
  %.not13.i = icmp eq i32 %22, 0
  %26 = select i1 %.not13.i, i32 705, i32 577
  %27 = tail call i32 (ptr, i32, ...) @open(ptr noundef nonnull %19, i32 noundef %26, i32 noundef 384) #21
  %28 = icmp slt i32 %27, 0
  br i1 %28, label %29, label %35

29:                                               ; preds = %25
  %30 = load ptr, ptr @stderr, align 8, !tbaa !30
  %31 = tail call ptr @__errno_location() #25
  %32 = load i32, ptr %31, align 4, !tbaa !20
  %33 = tail call ptr @strerror(i32 noundef %32) #21
  %34 = tail call i32 (ptr, ptr, ...) @fprintf(ptr noundef %30, ptr noundef nonnull @.str.66, ptr noundef nonnull %19, ptr noundef %33) #24
  br label %OpenOutputFile.exit

35:                                               ; preds = %25
  %36 = tail call noalias ptr @fdopen(i32 noundef %27, ptr noundef nonnull @.str.65) #21
  store ptr %36, ptr %20, align 8, !tbaa !30
  %.not14.i = icmp eq ptr %36, null
  br i1 %.not14.i, label %37, label %OpenOutputFile.exit

37:                                               ; preds = %35
  %38 = load ptr, ptr @stderr, align 8, !tbaa !30
  %39 = tail call ptr @__errno_location() #25
  %40 = load i32, ptr %39, align 4, !tbaa !20
  %41 = tail call ptr @strerror(i32 noundef %40) #21
  %42 = tail call i32 (ptr, ptr, ...) @fprintf(ptr noundef %38, ptr noundef nonnull @.str.66, ptr noundef nonnull %19, ptr noundef %41) #24
  br label %OpenOutputFile.exit

OpenOutputFile.exit:                              ; preds = %37, %35, %29, %23, %OpenInputFile.exit.thread, %OpenInputFile.exit
  %.0 = phi i32 [ 1, %OpenInputFile.exit ], [ 0, %OpenInputFile.exit.thread ], [ 0, %29 ], [ 0, %37 ], [ 1, %23 ], [ 1, %35 ]
  ret i32 %.0
}